target datalayout = "e-m:e-p270:32:32-p271:32:32-p272:64:64-i64:64-i128:128-f80:128-n8:16:32:64-S128"
target triple = "x86_64-pc-linux-gnu"

%struct.dt_pthread_mutex_t = type { %union.pthread_mutex_t }
%union.pthread_mutex_t = type { %struct.__pthread_mutex_s }
%struct.__pthread_mutex_s = type { i32, i32, i32, i32, i32, i16, i16, %struct.__pthread_internal_list }
%struct.__pthread_internal_list = type { ptr, ptr }
%struct._dt_progress_t = type { double, ptr, i32, %struct.dt_pthread_mutex_t, ptr, ptr, ptr }
%struct.dt_control_t = type { i32, ptr, %struct.dt_action_t, %struct.dt_action_t, %struct.dt_action_t, %struct.dt_action_t, %struct.dt_action_t, %struct.dt_action_t, %struct.dt_action_t, %struct.dt_action_t, %struct.dt_action_t, %struct.dt_action_t, %struct.dt_action_t, ptr, ptr, ptr, i32, ptr, i32, i32, ptr, ptr, [256 x i8], i32, double, i32, i32, i64, i32, i32, i32, double, double, i32, i32, i32, i32, i32, i32, [8 x [1000 x i8]], i32, i32, %struct.dt_pthread_mutex_t, i32, i32, [2 x [300 x i8]], i32, i32, %struct.dt_pthread_mutex_t, %struct.dt_pthread_mutex_t, %struct.dt_pthread_mutex_t, double, i32, i32, i32, %struct.dt_pthread_mutex_t, %struct.dt_pthread_mutex_t, %union.pthread_cond_t, i32, ptr, i64, i64, ptr, [5 x ptr], [5 x i64], %struct.dt_pthread_mutex_t, [3 x ptr], [3 x i8], [3 x i64], %struct.anon.1, %struct.anon.3 }
%struct.dt_action_t = type { i32, ptr, ptr, ptr, ptr, ptr }
%union.pthread_cond_t = type { %struct.__pthread_cond_s }
%struct.__pthread_cond_s = type { %union.__atomic_wide_counter, %union.__atomic_wide_counter, [2 x i32], [2 x i32], i32, i32, [2 x i32] }
%union.__atomic_wide_counter = type { i64 }
%struct.anon.1 = type { ptr, i64, i64, double, %struct.dt_pthread_mutex_t, %struct.anon.2 }
%struct.anon.2 = type { ptr, ptr, ptr, ptr, ptr, ptr }
%struct.anon.3 = type { %struct.anon.4 }
%struct.anon.4 = type { ptr, ptr }

; Function Attrs: inlinehint nounwind uwtable
define internal i32 @dt_pthread_mutex_unlock(ptr noundef %0) #4 {
  %2 = alloca ptr, align 8
  store ptr %0, ptr %2, align 8, !tbaa !87
  %3 = load ptr, ptr %2, align 8, !tbaa !87
  %4 = getelementptr inbounds nuw %struct.dt_pthread_mutex_t, ptr %3, i32 0, i32 0
  %5 = call i32 @pthread_mutex_unlock(ptr noundef %4) #6
  ret i32 %5
}

; Function Attrs: inlinehint nounwind uwtable
define internal i32 @dt_pthread_mutex_lock(ptr noundef %0) #4 {
  %2 = alloca ptr, align 8
  store ptr %0, ptr %2, align 8, !tbaa !87
  %3 = load ptr, ptr %2, align 8, !tbaa !87
  %4 = getelementptr inbounds nuw %struct.dt_pthread_mutex_t, ptr %3, i32 0, i32 0
  %5 = call i32 @pthread_mutex_lock(ptr noundef %4) #6
  ret i32 %5
}

; Function Attrs: nounwind uwtable
define void @dt_control_progress_set_message(ptr noundef %0, ptr noundef %1, ptr noundef %2) #0 {
  %4 = alloca ptr, align 8
  %5 = alloca ptr, align 8
  %6 = alloca ptr, align 8
  store ptr %0, ptr %4, align 8, !tbaa !6
  store ptr %1, ptr %5, align 8, !tbaa !62
  store ptr %2, ptr %6, align 8, !tbaa !61
  %7 = load ptr, ptr %5, align 8, !tbaa !62
  %8 = getelementptr inbounds nuw %struct._dt_progress_t, ptr %7, i32 0, i32 3
  %9 = call i32 @dt_pthread_mutex_lock(ptr noundef %8)
  %10 = load ptr, ptr %5, align 8, !tbaa !62
  %11 = getelementptr inbounds nuw %struct._dt_progress_t, ptr %10, i32 0, i32 1
  %12 = load ptr, ptr %11, align 8, !tbaa !64
  call void @g_free(ptr noundef %12)
  %13 = load ptr, ptr %6, align 8, !tbaa !61
  %14 = call noalias ptr @g_strdup(ptr noundef %13)
  %15 = load ptr, ptr %5, align 8, !tbaa !62
  %16 = getelementptr inbounds nuw %struct._dt_progress_t, ptr %15, i32 0, i32 1
  store ptr %14, ptr %16, align 8, !tbaa !64
  %17 = load ptr, ptr %5, align 8, !tbaa !62
  %18 = getelementptr inbounds nuw %struct._dt_progress_t, ptr %17, i32 0, i32 3
  %19 = call i32 @dt_pthread_mutex_unlock(ptr noundef %18)
  %20 = load ptr, ptr %4, align 8, !tbaa !6
  %21 = getelementptr inbounds nuw %struct.dt_control_t, ptr %20, i32 0, i32 69
  %22 = getelementptr inbounds nuw %struct.anon.1, ptr %21, i32 0, i32 4
  %23 = call i32 @dt_pthread_mutex_lock(ptr noundef %22)
  %24 = load ptr, ptr %4, align 8, !tbaa !6
  %25 = getelementptr inbounds nuw %struct.dt_control_t, ptr %24, i32 0, i32 69
  %26 = getelementptr inbounds nuw %struct.anon.1, ptr %25, i32 0, i32 5
  %27 = getelementptr inbounds nuw %struct.anon.2, ptr %26, i32 0, i32 0
  %28 = load ptr, ptr %27, align 8, !tbaa !84
  %29 = icmp ne ptr %28, null
  br i1 %29, label %30, label %45

30:                                               ; preds = %3
  %31 = load ptr, ptr %4, align 8, !tbaa !6
  %32 = getelementptr inbounds nuw %struct.dt_control_t, ptr %31, i32 0, i32 69
  %33 = getelementptr inbounds nuw %struct.anon.1, ptr %32, i32 0, i32 5
  %34 = getelementptr inbounds nuw %struct.anon.2, ptr %33, i32 0, i32 5
  %35 = load ptr, ptr %34, align 8, !tbaa !105
  %36 = load ptr, ptr %4, align 8, !tbaa !6
  %37 = getelementptr inbounds nuw %struct.dt_control_t, ptr %36, i32 0, i32 69
  %38 = getelementptr inbounds nuw %struct.anon.1, ptr %37, i32 0, i32 5
  %39 = getelementptr inbounds nuw %struct.anon.2, ptr %38, i32 0, i32 0
  %40 = load ptr, ptr %39, align 8, !tbaa !84
  %41 = load ptr, ptr %5, align 8, !tbaa !62
  %42 = getelementptr inbounds nuw %struct._dt_progress_t, ptr %41, i32 0, i32 4
  %43 = load ptr, ptr %42, align 8, !tbaa !86
  %44 = load ptr, ptr %6, align 8, !tbaa !61
  call void %35(ptr noundef %40, ptr noundef %43, ptr noundef %44)
  br label %45

45:                                               ; preds = %30, %3
  %46 = load ptr, ptr %4, align 8, !tbaa !6
  %47 = getelementptr inbounds nuw %struct.dt_control_t, ptr %46, i32 0, i32 69
  %48 = getelementptr inbounds nuw %struct.anon.1, ptr %47, i32 0, i32 4
  %49 = call i32 @dt_pthread_mutex_unlock(ptr noundef %48)
  ret void
}