; Function Attrs: nounwind uwtable
define void @dt_control_progress_set_message(ptr noundef %0, ptr noundef %1, ptr noundef %2) local_unnamed_addr #0 {
  %4 = getelementptr inbounds nuw i8, ptr %1, i64 24
  %5 = tail call i32 @pthread_mutex_lock(ptr noundef nonnull %4) #6
  %6 = getelementptr inbounds nuw i8, ptr %1, i64 8
  %7 = load ptr, ptr %6, align 8, !tbaa !56
  tail call void @g_free(ptr noundef %7) #6
  %8 = tail call noalias ptr @g_strdup(ptr noundef %2) #6
  store ptr %8, ptr %6, align 8, !tbaa !56
  %9 = tail call i32 @pthread_mutex_unlock(ptr noundef nonnull %4) #6
  %10 = getelementptr inbounds nuw i8, ptr %0, i64 10136
  %11 = tail call i32 @pthread_mutex_lock(ptr noundef nonnull %10) #6
  %12 = getelementptr inbounds nuw i8, ptr %0, i64 10176
  %13 = load ptr, ptr %12, align 8, !tbaa !78
  %.not = icmp eq ptr %13, null
  br i1 %.not, label %19, label %14

14:                                               ; preds = %3
  %15 = getelementptr inbounds nuw i8, ptr %0, i64 10216
  %16 = load ptr, ptr %15, align 8, !tbaa !90
  %17 = getelementptr inbounds nuw i8, ptr %1, i64 64
  %18 = load ptr, ptr %17, align 8, !tbaa !80
  tail call void %16(ptr noundef nonnull %13, ptr noundef %18, ptr noundef %2) #6
  br label %19

19:                                               ; preds = %14, %3
  %20 = tail call i32 @pthread_mutex_unlock(ptr noundef nonnull %10) #6
  ret void
}